target datalayout = "e-m:e-p270:32:32-p271:32:32-p272:64:64-i64:64-i128:128-f80:128-n8:16:32:64-S128"
target triple = "x86_64-unknown-linux-gnu"

%struct.timeval = type { i64, i64 }

@.str.10 = private unnamed_addr constant [22 x i8] c"../qemu/hw/ide/ahci.c\00", align 1
@__func__.ahci_mem_read = private unnamed_addr constant [14 x i8] c"ahci_mem_read\00", align 1
@.str.11 = private unnamed_addr constant [9 x i8] c"size > 1\00", align 1
@trace_events_enabled_count = external global i32, align 4
@message_with_timestamp = external global i8, align 1
@qemu_loglevel = external global i32, align 4
@_TRACE_AHCI_MEM_READ_DSTATE = external global i16, align 2
@.str.56 = private unnamed_addr constant [63 x i8] c"%d@%zu.%06zu:ahci_mem_read ahci(%p): read%u @ 0x%lx: 0x%016lx\0A\00", align 1
@.str.57 = private unnamed_addr constant [50 x i8] c"ahci_mem_read ahci(%p): read%u @ 0x%lx: 0x%016lx\0A\00", align 1

; Function Attrs: nounwind sspstrong uwtable
define internal zeroext i1 @qemu_loglevel_mask(i32 noundef %mask) #0 {
entry:
  %mask.addr = alloca i32, align 4
  store i32 %mask, ptr %mask.addr, align 4
  %0 = load i32, ptr @qemu_loglevel, align 4
  %1 = load i32, ptr %mask.addr, align 4
  %and = and i32 %0, %1
  %cmp = icmp ne i32 %and, 0
  ret i1 %cmp
}

; Function Attrs: nounwind sspstrong uwtable
define internal void @_nocheck__trace_ahci_mem_read(ptr noundef %s, i32 noundef %size, i64 noundef %addr, i64 noundef %val) #0 {
entry:
  %s.addr = alloca ptr, align 8
  %size.addr = alloca i32, align 4
  %addr.addr = alloca i64, align 8
  %val.addr = alloca i64, align 8
  %_now = alloca %struct.timeval, align 8
  store ptr %s, ptr %s.addr, align 8
  store i32 %size, ptr %size.addr, align 4
  store i64 %addr, ptr %addr.addr, align 8
  store i64 %val, ptr %val.addr, align 8
  %0 = load i32, ptr @trace_events_enabled_count, align 4
  %tobool = icmp ne i32 %0, 0
  %lnot = xor i1 %tobool, true
  %lnot1 = xor i1 %lnot, true
  %lnot.ext = zext i1 %lnot1 to i32
  %conv = sext i32 %lnot.ext to i64
  %tobool2 = icmp ne i64 %conv, 0
  br i1 %tobool2, label %land.lhs.true, label %if.end11

land.lhs.true:                                    ; preds = %entry
  %1 = load i16, ptr @_TRACE_AHCI_MEM_READ_DSTATE, align 2
  %conv3 = zext i16 %1 to i32
  %tobool4 = icmp ne i32 %conv3, 0
  br i1 %tobool4, label %land.lhs.true5, label %if.end11

land.lhs.true5:                                   ; preds = %land.lhs.true
  %call = call zeroext i1 @qemu_loglevel_mask(i32 noundef 32768)
  br i1 %call, label %if.then, label %if.end11

if.then:                                          ; preds = %land.lhs.true5
  %2 = load i8, ptr @message_with_timestamp, align 1
  %tobool7 = trunc i8 %2 to i1
  br i1 %tobool7, label %if.then8, label %if.else

if.then8:                                         ; preds = %if.then
  %call9 = call i32 @gettimeofday(ptr noundef %_now, ptr noundef null) #10
  %call10 = call i32 @qemu_get_thread_id()
  %tv_sec = getelementptr inbounds %struct.timeval, ptr %_now, i32 0, i32 0
  %3 = load i64, ptr %tv_sec, align 8
  %tv_usec = getelementptr inbounds %struct.timeval, ptr %_now, i32 0, i32 1
  %4 = load i64, ptr %tv_usec, align 8
  %5 = load ptr, ptr %s.addr, align 8
  %6 = load i32, ptr %size.addr, align 4
  %7 = load i64, ptr %addr.addr, align 8
  %8 = load i64, ptr %val.addr, align 8
  call void (ptr, ...) @qemu_log(ptr noundef @.str.56, i32 noundef %call10, i64 noundef %3, i64 noundef %4, ptr noundef %5, i32 noundef %6, i64 noundef %7, i64 noundef %8)
  br label %if.end

if.else:                                          ; preds = %if.then
  %9 = load ptr, ptr %s.addr, align 8
  %10 = load i32, ptr %size.addr, align 4
  %11 = load i64, ptr %addr.addr, align 8
  %12 = load i64, ptr %val.addr, align 8
  call void (ptr, ...) @qemu_log(ptr noundef @.str.57, ptr noundef %9, i32 noundef %10, i64 noundef %11, i64 noundef %12)
  br label %if.end

if.end:                                           ; preds = %if.else, %if.then8
  br label %if.end11

if.end11:                                         ; preds = %if.end, %land.lhs.true5, %land.lhs.true, %entry
  ret void
}

; Function Attrs: nounwind sspstrong uwtable
define internal void @trace_ahci_mem_read(ptr noundef %s, i32 noundef %size, i64 noundef %addr, i64 noundef %val) #0 {
entry:
  %s.addr = alloca ptr, align 8
  %size.addr = alloca i32, align 4
  %addr.addr = alloca i64, align 8
  %val.addr = alloca i64, align 8
  store ptr %s, ptr %s.addr, align 8
  store i32 %size, ptr %size.addr, align 4
  store i64 %addr, ptr %addr.addr, align 8
  store i64 %val, ptr %val.addr, align 8
  %0 = load ptr, ptr %s.addr, align 8
  %1 = load i32, ptr %size.addr, align 4
  %2 = load i64, ptr %addr.addr, align 8
  %3 = load i64, ptr %val.addr, align 8
  call void @_nocheck__trace_ahci_mem_read(ptr noundef %0, i32 noundef %1, i64 noundef %2, i64 noundef %3)
  ret void
}

; Function Attrs: nounwind sspstrong uwtable
define internal i64 @ahci_mem_read(ptr noundef %opaque, i64 noundef %addr, i32 noundef %size) #0 {
entry:
  %opaque.addr = alloca ptr, align 8
  %addr.addr = alloca i64, align 8
  %size.addr = alloca i32, align 4
  %aligned = alloca i64, align 8
  %ofst = alloca i32, align 4
  %lo = alloca i64, align 8
  %hi = alloca i64, align 8
  %val = alloca i64, align 8
  store ptr %opaque, ptr %opaque.addr, align 8
  store i64 %addr, ptr %addr.addr, align 8
  store i32 %size, ptr %size.addr, align 4
  %0 = load i64, ptr %addr.addr, align 8
  %and = and i64 %0, -4
  store i64 %and, ptr %aligned, align 8
  %1 = load i64, ptr %addr.addr, align 8
  %2 = load i64, ptr %aligned, align 8
  %sub = sub i64 %1, %2
  %conv = trunc i64 %sub to i32
  store i32 %conv, ptr %ofst, align 4
  %3 = load ptr, ptr %opaque.addr, align 8
  %4 = load i64, ptr %aligned, align 8
  %call = call i64 @ahci_mem_read_32(ptr noundef %3, i64 noundef %4)
  store i64 %call, ptr %lo, align 8
  %5 = load i32, ptr %ofst, align 4
  %6 = load i32, ptr %size.addr, align 4
  %add = add i32 %5, %6
  %cmp = icmp ule i32 %add, 4
  br i1 %cmp, label %if.then, label %if.else

if.then:                                          ; preds = %entry
  %7 = load i64, ptr %lo, align 8
  %8 = load i32, ptr %ofst, align 4
  %mul = mul i32 %8, 8
  %sh_prom = zext i32 %mul to i64
  %shr = lshr i64 %7, %sh_prom
  store i64 %shr, ptr %val, align 8
  br label %if.end11

if.else:                                          ; preds = %entry
  br label %do.body

do.body:                                          ; preds = %if.else
  %9 = load i32, ptr %size.addr, align 4
  %cmp2 = icmp ugt i32 %9, 1
  br i1 %cmp2, label %if.then4, label %if.else5

if.then4:                                         ; preds = %do.body
  br label %if.end

if.else5:                                         ; preds = %do.body
  call void @g_assertion_message_expr(ptr noundef null, ptr noundef @.str.10, i32 noundef 454, ptr noundef @__func__.ahci_mem_read, ptr noundef @.str.11) #8
  unreachable

if.end:                                           ; preds = %if.then4
  br label %do.end

do.end:                                           ; preds = %if.end
  %10 = load ptr, ptr %opaque.addr, align 8
  %11 = load i64, ptr %aligned, align 8
  %add6 = add i64 %11, 4
  %call7 = call i64 @ahci_mem_read_32(ptr noundef %10, i64 noundef %add6)
  store i64 %call7, ptr %hi, align 8
  %12 = load i64, ptr %hi, align 8
  %shl = shl i64 %12, 32
  %13 = load i64, ptr %lo, align 8
  %or = or i64 %shl, %13
  %14 = load i32, ptr %ofst, align 4
  %mul8 = mul i32 %14, 8
  %sh_prom9 = zext i32 %mul8 to i64
  %shr10 = lshr i64 %or, %sh_prom9
  store i64 %shr10, ptr %val, align 8
  br label %if.end11

if.end11:                                         ; preds = %do.end, %if.then
  %15 = load ptr, ptr %opaque.addr, align 8
  %16 = load i32, ptr %size.addr, align 4
  %17 = load i64, ptr %addr.addr, align 8
  %18 = load i64, ptr %val, align 8
  call void @trace_ahci_mem_read(ptr noundef %15, i32 noundef %16, i64 noundef %17, i64 noundef %18)
  %19 = load i64, ptr %val, align 8
  ret i64 %19
}