; Function Attrs: nounwind sspstrong uwtable
define internal i64 @ahci_mem_read(ptr noundef %opaque, i64 noundef %addr, i32 noundef %size) #0 {
entry:
  %_now.i.i = alloca %struct.timeval, align 8
  %and = and i64 %addr, -4
  %0 = trunc i64 %addr to i32
  %conv = and i32 %0, 3
  %call = tail call fastcc i64 @ahci_mem_read_32(ptr noundef %opaque, i64 noundef %and)
  %add = add i32 %conv, %size
  %cmp = icmp ult i32 %add, 5
  br i1 %cmp, label %if.end11, label %do.body

do.body:                                          ; preds = %entry
  %cmp2 = icmp ugt i32 %size, 1
  br i1 %cmp2, label %do.end, label %if.else5

if.else5:                                         ; preds = %do.body
  tail call void @g_assertion_message_expr(ptr noundef null, ptr noundef nonnull @.str.10, i32 noundef 454, ptr noundef nonnull @__func__.ahci_mem_read, ptr noundef nonnull @.str.11) #14
  unreachable

do.end:                                           ; preds = %do.body
  %add6 = add i64 %and, 4
  %call7 = tail call fastcc i64 @ahci_mem_read_32(ptr noundef %opaque, i64 noundef %add6)
  %shl = shl nuw i64 %call7, 32
  %or = or disjoint i64 %shl, %call
  br label %if.end11

if.end11:                                         ; preds = %entry, %do.end
  %or.sink = phi i64 [ %or, %do.end ], [ %call, %entry ]
  %mul8 = shl nuw nsw i32 %conv, 3
  %sh_prom9 = zext nneg i32 %mul8 to i64
  %shr10 = lshr i64 %or.sink, %sh_prom9
  call void @llvm.lifetime.start.p0(i64 16, ptr nonnull %_now.i.i)
  %1 = load i32, ptr @trace_events_enabled_count, align 4
  %tobool.i.i = icmp ne i32 %1, 0
  %2 = load i16, ptr @_TRACE_AHCI_MEM_READ_DSTATE, align 2
  %tobool4.i.i = icmp ne i16 %2, 0
  %or.cond.i.i = select i1 %tobool.i.i, i1 %tobool4.i.i, i1 false
  br i1 %or.cond.i.i, label %land.lhs.true5.i.i, label %trace_ahci_mem_read.exit

land.lhs.true5.i.i:                               ; preds = %if.end11
  %3 = load i32, ptr @qemu_loglevel, align 4
  %and.i.i.i = and i32 %3, 32768
  %cmp.i.not.i.i = icmp eq i32 %and.i.i.i, 0
  br i1 %cmp.i.not.i.i, label %trace_ahci_mem_read.exit, label %if.then.i.i

if.then.i.i:                                      ; preds = %land.lhs.true5.i.i
  %4 = load i8, ptr @message_with_timestamp, align 1
  %tobool7.i.i = trunc i8 %4 to i1
  br i1 %tobool7.i.i, label %if.then8.i.i, label %if.else.i.i

if.then8.i.i:                                     ; preds = %if.then.i.i
  %call9.i.i = call i32 @gettimeofday(ptr noundef nonnull %_now.i.i, ptr noundef null) #12
  %call10.i.i = tail call i32 @qemu_get_thread_id() #12
  %5 = load i64, ptr %_now.i.i, align 8
  %tv_usec.i.i = getelementptr inbounds nuw i8, ptr %_now.i.i, i64 8
  %6 = load i64, ptr %tv_usec.i.i, align 8
  tail call void (ptr, ...) @qemu_log(ptr noundef nonnull @.str.56, i32 noundef %call10.i.i, i64 noundef %5, i64 noundef %6, ptr noundef %opaque, i32 noundef %size, i64 noundef %addr, i64 noundef %shr10) #12
  br label %trace_ahci_mem_read.exit

if.else.i.i:                                      ; preds = %if.then.i.i
  tail call void (ptr, ...) @qemu_log(ptr noundef nonnull @.str.57, ptr noundef %opaque, i32 noundef %size, i64 noundef %addr, i64 noundef %shr10) #12
  br label %trace_ahci_mem_read.exit

trace_ahci_mem_read.exit:                         ; preds = %if.end11, %land.lhs.true5.i.i, %if.then8.i.i, %if.else.i.i
  call void @llvm.lifetime.end.p0(i64 16, ptr nonnull %_now.i.i)
  ret i64 %shr10
}